target datalayout = "e-m:e-p270:32:32-p271:32:32-p272:64:64-i64:64-i128:128-f80:128-n8:16:32:64-S128"
target triple = "x86_64-pc-linux-gnu"

; Function Attrs: nounwind uwtable
define ptr @stb_include_strings(ptr noundef %0, i32 noundef %1, ptr noundef %2, ptr noundef %3, ptr noundef %4, ptr noundef %5) #0 {
  %7 = alloca ptr, align 8
  %8 = alloca i32, align 4
  %9 = alloca ptr, align 8
  %10 = alloca ptr, align 8
  %11 = alloca ptr, align 8
  %12 = alloca ptr, align 8
  %13 = alloca ptr, align 8
  %14 = alloca ptr, align 8
  %15 = alloca i32, align 4
  %16 = alloca i64, align 8
  store ptr %0, ptr %7, align 8, !tbaa !36
  store i32 %1, ptr %8, align 4, !tbaa !16
  store ptr %2, ptr %9, align 8, !tbaa !3
  store ptr %3, ptr %10, align 8, !tbaa !3
  store ptr %4, ptr %11, align 8, !tbaa !3
  store ptr %5, ptr %12, align 8, !tbaa !3
  call void @llvm.lifetime.start.p0(i64 8, ptr %13) #8
  call void @llvm.lifetime.start.p0(i64 8, ptr %14) #8
  call void @llvm.lifetime.start.p0(i64 4, ptr %15) #8
  call void @llvm.lifetime.start.p0(i64 8, ptr %16) #8
  store i64 0, ptr %16, align 8, !tbaa !12
  store i32 0, ptr %15, align 4, !tbaa !16
  br label %17

17:                                               ; preds = %30, %6
  %18 = load i32, ptr %15, align 4, !tbaa !16
  %19 = load i32, ptr %8, align 4, !tbaa !16
  %20 = icmp slt i32 %18, %19
  br i1 %20, label %21, label %33

21:                                               ; preds = %17
  %22 = load ptr, ptr %7, align 8, !tbaa !36
  %23 = load i32, ptr %15, align 4, !tbaa !16
  %24 = sext i32 %23 to i64
  %25 = getelementptr inbounds ptr, ptr %22, i64 %24
  %26 = load ptr, ptr %25, align 8, !tbaa !3
  %27 = call i64 @strlen(ptr noundef %26) #11
  %28 = load i64, ptr %16, align 8, !tbaa !12
  %29 = add i64 %28, %27
  store i64 %29, ptr %16, align 8, !tbaa !12
  br label %30

30:                                               ; preds = %21
  %31 = load i32, ptr %15, align 4, !tbaa !16
  %32 = add nsw i32 %31, 1
  store i32 %32, ptr %15, align 4, !tbaa !16
  br label %17, !llvm.loop !38

33:                                               ; preds = %17
  %34 = load i64, ptr %16, align 8, !tbaa !12
  %35 = add i64 %34, 1
  %36 = call noalias ptr @malloc(i64 noundef %35) #9
  store ptr %36, ptr %13, align 8, !tbaa !3
  store i64 0, ptr %16, align 8, !tbaa !12
  store i32 0, ptr %15, align 4, !tbaa !16
  br label %37

37:                                               ; preds = %59, %33
  %38 = load i32, ptr %15, align 4, !tbaa !16
  %39 = load i32, ptr %8, align 4, !tbaa !16
  %40 = icmp slt i32 %38, %39
  br i1 %40, label %41, label %62

41:                                               ; preds = %37
  %42 = load ptr, ptr %13, align 8, !tbaa !3
  %43 = load i64, ptr %16, align 8, !tbaa !12
  %44 = getelementptr inbounds nuw i8, ptr %42, i64 %43
  %45 = load ptr, ptr %7, align 8, !tbaa !36
  %46 = load i32, ptr %15, align 4, !tbaa !16
  %47 = sext i32 %46 to i64
  %48 = getelementptr inbounds ptr, ptr %45, i64 %47
  %49 = load ptr, ptr %48, align 8, !tbaa !3
  %50 = call ptr @strcpy(ptr noundef %44, ptr noundef %49) #8
  %51 = load ptr, ptr %7, align 8, !tbaa !36
  %52 = load i32, ptr %15, align 4, !tbaa !16
  %53 = sext i32 %52 to i64
  %54 = getelementptr inbounds ptr, ptr %51, i64 %53
  %55 = load ptr, ptr %54, align 8, !tbaa !3
  %56 = call i64 @strlen(ptr noundef %55) #11
  %57 = load i64, ptr %16, align 8, !tbaa !12
  %58 = add i64 %57, %56
  store i64 %58, ptr %16, align 8, !tbaa !12
  br label %59

59:                                               ; preds = %41
  %60 = load i32, ptr %15, align 4, !tbaa !16
  %61 = add nsw i32 %60, 1
  store i32 %61, ptr %15, align 4, !tbaa !16
  br label %37, !llvm.loop !39

62:                                               ; preds = %37
  %63 = load ptr, ptr %13, align 8, !tbaa !3
  %64 = load ptr, ptr %9, align 8, !tbaa !3
  %65 = load ptr, ptr %10, align 8, !tbaa !3
  %66 = load ptr, ptr %11, align 8, !tbaa !3
  %67 = load ptr, ptr %12, align 8, !tbaa !3
  %68 = call ptr @stb_include_string(ptr noundef %63, ptr noundef %64, ptr noundef %65, ptr noundef %66, ptr noundef %67)
  store ptr %68, ptr %14, align 8, !tbaa !3
  %69 = load ptr, ptr %13, align 8, !tbaa !3
  call void @free(ptr noundef %69) #8
  %70 = load ptr, ptr %14, align 8, !tbaa !3
  call void @llvm.lifetime.end.p0(i64 8, ptr %16) #8
  call void @llvm.lifetime.end.p0(i64 4, ptr %15) #8
  call void @llvm.lifetime.end.p0(i64 8, ptr %14) #8
  call void @llvm.lifetime.end.p0(i64 8, ptr %13) #8
  ret ptr %70
}