; Function Attrs: nounwind uwtable
define noalias noundef ptr @stb_include_strings(ptr noundef readonly captures(none) %0, i32 noundef %1, ptr noundef captures(address_is_null) %2, ptr noundef readonly captures(none) %3, ptr noundef captures(address_is_null) %4, ptr noundef %5) local_unnamed_addr #6 {
  %7 = icmp sgt i32 %1, 0
  br i1 %7, label %.lr.ph.preheader, label %._crit_edge.thread

._crit_edge.thread:                               ; preds = %6
  %8 = tail call noalias dereferenceable_or_null(1) ptr @malloc(i64 noundef 1) #14
  br label %._crit_edge32

.lr.ph.preheader:                                 ; preds = %6
  %wide.trip.count = zext nneg i32 %1 to i64
  br label %.lr.ph

.lr.ph:                                           ; preds = %.lr.ph.preheader, %.lr.ph
  %indvars.iv = phi i64 [ 0, %.lr.ph.preheader ], [ %indvars.iv.next, %.lr.ph ]
  %.027 = phi i64 [ 0, %.lr.ph.preheader ], [ %12, %.lr.ph ]
  %9 = getelementptr inbounds nuw ptr, ptr %0, i64 %indvars.iv
  %10 = load ptr, ptr %9, align 8, !tbaa !29
  %11 = tail call i64 @strlen(ptr noundef nonnull dereferenceable(1) %10) #17
  %12 = add i64 %11, %.027
  %indvars.iv.next = add nuw nsw i64 %indvars.iv, 1
  %exitcond.not = icmp eq i64 %indvars.iv.next, %wide.trip.count
  br i1 %exitcond.not, label %._crit_edge, label %.lr.ph, !llvm.loop !30

._crit_edge:                                      ; preds = %.lr.ph
  %13 = add i64 %12, 1
  %14 = tail call noalias ptr @malloc(i64 noundef %13) #14
  %wide.trip.count37 = zext nneg i32 %1 to i64
  br label %.lr.ph31

.lr.ph31:                                         ; preds = %._crit_edge, %.lr.ph31
  %indvars.iv34 = phi i64 [ 0, %._crit_edge ], [ %indvars.iv.next35, %.lr.ph31 ]
  %.129 = phi i64 [ 0, %._crit_edge ], [ %20, %.lr.ph31 ]
  %15 = getelementptr inbounds nuw i8, ptr %14, i64 %.129
  %16 = getelementptr inbounds nuw ptr, ptr %0, i64 %indvars.iv34
  %17 = load ptr, ptr %16, align 8, !tbaa !29
  %18 = tail call ptr @strcpy(ptr noundef nonnull dereferenceable(1) %15, ptr noundef nonnull dereferenceable(1) %17) #16
  %19 = tail call i64 @strlen(ptr noundef nonnull dereferenceable(1) %17) #17
  %20 = add i64 %19, %.129
  %indvars.iv.next35 = add nuw nsw i64 %indvars.iv34, 1
  %exitcond38.not = icmp eq i64 %indvars.iv.next35, %wide.trip.count37
  br i1 %exitcond38.not, label %._crit_edge32, label %.lr.ph31, !llvm.loop !31

._crit_edge32:                                    ; preds = %.lr.ph31, %._crit_edge.thread
  %21 = phi ptr [ %8, %._crit_edge.thread ], [ %14, %.lr.ph31 ]
  %22 = tail call ptr @stb_include_string(ptr noundef %21, ptr noundef %2, ptr noundef %3, ptr noundef %4, ptr noundef %5)
  tail call void @free(ptr noundef %21) #16
  ret ptr %22
}